(lp0
(lp1
S'-74.1742699243'
p2
aS'40.6902422541'
p3
aa(lp4
S'-73.817643291'
p5
aS'40.6121617894'
p6
aa(lp7
S'-73.8465101738'
p8
aS'40.8642926423'
p9
aa(lp10
S'-73.9752091391'
p11
aS'40.7238520345'
p12
aa(lp13
S'-74.1898022249'
p14
aS'40.5566772739'
p15
aa(lp16
S'-74.0717466115'
p17
aS'40.601116616'
p18
aa(lp19
S'-73.9193652083'
p20
aS'40.7614317462'
p21
aa(lp22
S'-73.9233959789'
p23
aS'40.7780762161'
p24
aa(lp25
S'-73.7901887802'
p26
aS'40.7503012712'
p27
aa(lp28
S'-73.7903178572'
p29
aS'40.6779297336'
p30
aa(lp31
S'-74.0090226365'
p32
aS'40.6026910863'
p33
aa(lp34
S'-74.0154773522'
p35
aS'40.7020900221'
p36
aa(lp37
S'-74.017325568'
p38
aS'40.7094179214'
p39
aa(lp40
S'-74.0292459984'
p41
aS'40.6251950552'
p42
aa(lp43
S'-73.7786066323'
p44
aS'40.7909936106'
p45
aa(lp46
S'-73.7679727971'
p47
aS'40.7628100705'
p48
aa(lp49
S'-73.950316278'
p50
aS'40.6923979'
p51
aa(lp52
S'-73.8893870354'
p53
aS'40.8688753392'
p54
aa(lp55
S'-73.7288702575'
p56
aS'40.7346807517'
p57
aa(lp58
S'-73.8853663383'
p59
aS'40.8589393516'
p60
aa(lp61
S'-73.9904398255'
p62
aS'40.5968849093'
p63
aa(lp64
S'-73.995798566'
p65
aS'40.6088043458'
p66
aa(lp67
S'-74.1905117408'
p68
aS'40.6046234767'
p69
aa(lp70
S'-73.9677392428'
p71
aS'40.8029455195'
p72
aa(lp73
S'-73.9859294885'
p74
aS'40.6865866215'
p75
aa(lp76
S'-73.987951797'
p77
aS'40.6307365537'
p78
aa(lp79
S'-73.8908195213'
p80
aS'40.5612975829'
p81
aa(lp82
S'-73.8069844717'
p83
aS'40.7123124172'
p84
aa(lp85
S'-73.9605074266'
p86
aS'40.5799331657'
p87
aa(lp88
S'-73.8228962249'
p89
aS'40.6028811691'
p90
aa(lp91
S'-73.8751243289'
p92
aS'40.8603089953'
p93
aa(lp94
S'-73.8654155406'
p95
aS'40.8621146877'
p96
aa(lp97
S'-73.9955014641'
p98
aS'40.6969632096'
p99
aa(lp100
S'-73.9741757389'
p101
aS'40.7027008254'
p102
aa(lp103
S'-73.9103291128'
p104
aS'40.663989626'
p105
aa(lp106
S'-73.9168344648'
p107
aS'40.6992588466'
p108
aa(lp109
S'-73.9239208812'
p110
aS'40.6954632151'
p111
aa(lp112
S'-73.7355307458'
p113
aS'40.6951032962'
p114
aa(lp115
S'-73.8917065067'
p116
aS'40.6424806333'
p117
aa(lp118
S'-73.9966256514'
p119
aS'40.6778984094'
p120
aa(lp121
S'-73.9505733205'
p122
aS'40.8033548551'
p123
aa(lp124
S'-73.9370747836'
p125
aS'40.8263831257'
p126
aa(lp127
S'-73.9664977764'
p128
aS'40.7815058043'
p129
aa(lp130
S'-74.2373477055'
p131
aS'40.5299385578'
p132
aa(lp133
S'-73.9980492253'
p134
aS'40.71156729'
p135
aa(lp136
S'-73.7858515186'
p137
aS'40.8502660855'
p138
aa(lp139
S'-73.9004718182'
p140
aS'40.8432124474'
p141
aa(lp142
S'-73.9907439722'
p143
aS'40.7613968989'
p144
aa(lp145
S'-73.9613823326'
p146
aS'40.6902534202'
p147
aa(lp148
S'-73.9974739348'
p149
aS'40.7678363732'
p150
aa(lp151
S'-73.8303708542'
p152
aS'40.8755308458'
p153
aa(lp154
S'-73.9962399038'
p155
aS'40.686518917'
p156
aa(lp157
S'-73.8510616891'
p158
aS'40.7832384966'
p159
aa(lp160
S'-74.0037509777'
p161
aS'40.6874906953'
p162
aa(lp163
S'-73.9879681642'
p164
aS'40.5753896968'
p165
aa(lp166
S'-73.8566085182'
p167
aS'40.740790281'
p168
aa(lp169
S'-73.8533299046'
p170
aS'40.7520918231'
p171
aa(lp172
S'-73.8152150839'
p173
aS'40.8439868196'
p174
aa(lp175
S'-73.8950512294'
p176
aS'40.8379538328'
p177
aa(lp178
S'-73.8834308494'
p179
aS'40.8352663228'
p180
aa(lp181
S'-73.9355796802'
p182
aS'40.6751217616'
p183
aa(lp184
S'-73.9463290583'
p185
aS'40.6662154281'
p186
aa(lp187
S'-73.8845728697'
p188
aS'40.6809499204'
p189
aa(lp190
S'-73.7486343105'
p191
aS'40.7626344368'
p192
aa(lp193
S'-73.9852380434'
p194
aS'40.6958694424'
p195
aa(lp196
S'-73.9876866613'
p197
aS'40.7031316588'
p198
aa(lp199
S'-74.0150420521'
p200
aS'40.6174323093'
p201
aa(lp202
S'-74.0005533789'
p203
aS'40.7482493901'
p204
aa(lp205
S'-73.9151315123'
p206
aS'40.830581545'
p207
aa(lp208
S'-73.8658712672'
p209
aS'40.7632722458'
p210
aa(lp211
S'-73.9359574693'
p212
aS'40.6427591522'
p213
aa(lp214
S'-73.921482046'
p215
aS'40.6525930494'
p216
aa(lp217
S'-73.8071691797'
p218
aS'40.752943977'
p219
aa(lp220
S'-73.9340119001'
p221
aS'40.8045880403'
p222
aa(lp223
S'-73.9418794021'
p224
aS'40.7882544466'
p225
aa(lp226
S'-73.8755375679'
p227
aS'40.6548185955'
p228
aa(lp229
S'-73.894884755'
p230
aS'40.6671102645'
p231
aa(lp232
S'-73.8812021473'
p233
aS'40.8437814888'
p234
aa(lp235
S'-73.9864868575'
p236
aS'40.7267580777'
p237
aa(lp238
S'-73.9308221755'
p239
aS'40.7150497397'
p240
aa(lp241
S'-73.8310247225'
p242
aS'40.8816544644'
p243
aa(lp244
S'-73.8795203589'
p245
aS'40.7372049573'
p246
aa(lp247
S'-73.8928808011'
p248
aS'40.7378901685'
p249
aa(lp250
S'-74.1925479199'
p251
aS'40.5205233013'
p252
aa(lp253
S'-73.9518880918'
p254
aS'40.6457961374'
p255
aa(lp256
S'-73.757558287'
p257
aS'40.6027160293'
p258
aa(lp259
S'-74.0055502961'
p260
aS'40.7046309931'
p261
aa(lp262
S'-74.0118105542'
p263
aS'40.7012715528'
p264
aa(lp265
S'-73.9620990216'
p266
aS'40.6369805586'
p267
aa(lp268
S'-73.9967886599'
p269
aS'40.7421875917'
p270
aa(lp271
S'-73.9293784391'
p272
aS'40.6281200936'
p273
aa(lp274
S'-73.8276624166'
p275
aS'40.7602800149'
p276
aa(lp277
S'-73.845896398'
p278
aS'40.7475181919'
p279
aa(lp280
S'-73.8989260884'
p281
aS'40.8586878082'
p282
aa(lp283
S'-73.8447885971'
p284
aS'40.7212778913'
p285
aa(lp286
S'-73.8642098891'
p287
aS'40.6998038131'
p288
aa(lp289
S'-73.9776124764'
p290
aS'40.6915754637'
p291
aa(lp292
S'-73.7749017653'
p293
aS'40.7319647229'
p294
aa(lp295
S'-74.2031807432'
p296
aS'40.5682278687'
p297
aa(lp298
S'-73.9887160163'
p299
aS'40.7533852657'
p300
aa(lp301
S'-73.7156077089'
p302
aS'40.746495704'
p303
aa(lp304
S'-73.8770653262'
p305
aS'40.7018012491'
p306
aa(lp307
S'-74.0457719718'
p308
aS'40.6903294796'
p309
aa(lp310
S'-74.0405845146'
p311
aS'40.6994879608'
p312
aa(lp313
S'-74.0169585966'
p314
aS'40.6900096044'
p315
aa(lp316
S'-73.9918738581'
p317
aS'40.673822077'
p318
aa(lp319
S'-73.9842692544'
p320
aS'40.7367050072'
p321
aa(lp322
S'-73.9886202606'
p323
aS'40.5865612684'
p324
aa(lp325
S'-74.1435163639'
p326
aS'40.5430498001'
p327
aa(lp328
S'-74.1299804202'
p329
aS'40.5403648047'
p330
aa(lp331
S'-73.9906629131'
p332
aS'40.6530782043'
p333
aa(lp334
S'-73.9505160831'
p335
aS'40.734390316'
p336
aa(lp337
S'-73.9942024687'
p338
aS'40.7319061217'
p339
aa(lp340
S'-73.9969639979'
p341
aS'40.7276335743'
p342
aa(lp343
S'-74.0844740597'
p344
aS'40.6189207957'
p345
aa(lp346
S'-73.9507274013'
p347
aS'40.8279186376'
p348
aa(lp349
S'-73.7913166071'
p350
aS'40.5968272977'
p351
aa(lp352
S'-74.1284282696'
p353
aS'40.588547658'
p354
aa(lp355
S'-73.9262641867'
p356
aS'40.8379364273'
p357
aa(lp358
S'-73.9313231014'
p359
aS'40.8448597685'
p360
aa(lp361
S'-73.8053601463'
p362
aS'40.7283562969'
p363
aa(lp364
S'-73.7640210687'
p365
aS'40.7104330173'
p366
aa(lp367
S'-73.9647299613'
p368
aS'40.598263764'
p369
aa(lp370
S'-73.8473745868'
p371
aS'40.6553542506'
p372
aa(lp373
S'-74.0089158205'
p374
aS'40.7257588087'
p375
aa(lp376
S'-73.8891293422'
p377
aS'40.8073625937'
p378
aa(lp379
S'-73.9174849424'
p380
aS'40.8625939372'
p381
aa(lp382
S'-73.9213802857'
p383
aS'40.8746547473'
p384
aa(lp385
S'-73.8871823198'
p386
aS'40.759473754'
p387
aa(lp388
S'-73.7905278572'
p389
aS'40.7061367954'
p390
aa(lp391
S'-73.7778246588'
p392
aS'40.7195444268'
p393
aa(lp394
S'-73.7837450781'
p395
aS'40.6390669023'
p396
aa(lp397
S'-73.9765100932'
p398
aS'40.6407326476'
p399
aa(lp400
S'-73.8316207916'
p401
aS'40.7085535621'
p402
aa(lp403
S'-73.8208770965'
p404
aS'40.7278747158'
p405
aa(lp406
S'-73.9077612552'
p407
aS'40.86512293'
p408
aa(lp409
S'-73.9738213875'
p410
aS'40.7378835378'
p411
aa(lp412
S'-73.8728212971'
p413
aS'40.7746258641'
p414
aa(lp415
S'-73.74506763'
p416
aS'40.6767172082'
p417
aa(lp418
S'-73.9557200614'
p419
aS'40.7639055957'
p420
aa(lp421
S'-73.9601127302'
p422
aS'40.7656187885'
p423
aa(lp424
S'-73.9822960141'
p425
aS'40.7713125492'
p426
aa(lp427
S'-73.9900653768'
p428
aS'40.7763929391'
p429
aa(lp430
S'-73.9966751075'
p431
aS'40.7209691074'
p432
aa(lp433
S'-73.9548810914'
p434
aS'40.7425144183'
p435
aa(lp436
S'-73.9357908714'
p437
aS'40.7531187422'
p438
aa(lp439
S'-73.8985657827'
p440
aS'40.8197418911'
p441
aa(lp442
S'-73.9912183148'
p443
aS'40.7182659657'
p444
aa(lp445
S'-73.9464438601'
p446
aS'40.6055643636'
p447
aa(lp448
S'-73.9412302266'
p449
aS'40.581246242'
p450
aa(lp451
S'-73.9710099901'
p452
aS'40.7993757959'
p453
aa(lp454
S'-73.956132337'
p455
aS'40.8196388837'
p456
aa(lp457
S'-73.9118176105'
p458
aS'40.8745679308'
p459
aa(lp460
S'-73.9147436036'
p461
aS'40.5945636734'
p462
aa(lp463
S'-73.9019979373'
p464
aS'40.6132479952'
p465
aa(lp466
S'-74.1739237079'
p467
aS'40.6407870274'
p468
aa(lp469
S'-73.9039174054'
p470
aS'40.7235019332'
p471
aa(lp472
S'-74.0104859396'
p473
aS'40.7368950475'
p474
aa(lp475
S'-73.9134516256'
p476
aS'40.8198894699'
p477
aa(lp478
S'-73.882976497'
p479
aS'40.7193436814'
p480
aa(lp481
S'-73.9773496119'
p482
aS'40.7577515331'
p483
aa(lp484
S'-73.9726247108'
p485
aS'40.7565159156'
p486
aa(lp487
S'-73.9787569899'
p488
aS'40.7655593361'
p489
aa(lp490
S'-73.9847478043'
p491
aS'40.7485307989'
p492
aa(lp493
S'-73.9582217998'
p494
aS'40.6217144196'
p495
aa(lp496
S'-73.9636125939'
p497
aS'40.8106697414'
p498
aa(lp499
S'-73.9050206205'
p500
aS'40.8256674802'
p501
aa(lp502
S'-73.9120702303'
p503
aS'40.8042582956'
p504
aa(lp505
S'-73.9063590939'
p506
aS'40.8481472471'
p507
aa(lp508
S'-73.9783032768'
p509
aS'40.7474713942'
p510
aa(lp511
S'-73.8075836337'
p512
aS'40.768049448'
p513
aa(lp514
S'-74.1046262713'
p515
aS'40.5688961507'
p516
aa(lp517
S'-73.8614590484'
p518
aS'40.7541782166'
p519
aa(lp520
S'-73.8820158219'
p521
aS'40.8786632329'
p522
aa(lp523
S'-73.7552588344'
p524
aS'40.7436447774'
p525
aa(lp526
S'-74.1213587126'
p527
aS'40.5645533989'
p528
aa(lp529
S'-73.9120295744'
p530
aS'40.6770671898'
p531
aa(lp532
S'-73.9715044569'
p533
aS'40.6178460716'
p534
aa(lp535
S'-73.9301231991'
p536
aS'40.77239389'
p537
aa(lp538
S'-73.8485287811'
p539
aS'40.6763062216'
p540
aa(lp541
S'-73.9806703934'
p542
aS'40.6707442981'
p543
aa(lp544
S'-73.8586340001'
p545
aS'40.8370933166'
p546
aa(lp547
S'-73.8311043761'
p548
aS'40.8493675195'
p549
aa(lp550
S'-73.7965499561'
p551
aS'40.8622369154'
p552
aa(lp553
S'-73.8529554997'
p554
aS'40.8543683819'
p555
aa(lp556
S'-73.9919992531'
p557
aS'40.7485836389'
p558
aa(lp559
S'-74.1361287204'
p560
aS'40.6327051959'
p561
aa(lp562
S'-73.9480914577'
p563
aS'40.6587410264'
p564
aa(lp565
S'-73.9681311108'
p566
aS'40.6767074185'
p567
aa(lp568
S'-73.9725695423'
p569
aS'40.6610601485'
p570
aa(lp571
S'-73.7424293579'
p572
aS'40.7169284209'
p573
aa(lp574
S'-73.8146528485'
p575
aS'40.744060142'
p576
aa(lp577
S'-73.9390932523'
p578
aS'40.7627414018'
p579
aa(lp580
S'-73.9257392915'
p581
aS'40.7918273592'
p582
aa(lp583
S'-74.0130318311'
p584
aS'40.6744458218'
p585
aa(lp586
S'-73.8639586357'
p587
aS'40.7261694128'
p588
aa(lp589
S'-73.8290961581'
p590
aS'40.6954843926'
p591
aa(lp592
S'-73.9041680912'
p593
aS'40.7073585349'
p594
aa(lp595
S'-73.8806832066'
p596
aS'40.7934880131'
p597
aa(lp598
S'-73.9081848333'
p599
aS'40.8989473686'
p600
aa(lp601
S'-73.8382461839'
p602
aS'40.5787524678'
p603
aa(lp604
S'-73.950210362'
p605
aS'40.761761761'
p606
aa(lp607
S'-73.7449248166'
p608
aS'40.644089929'
p609
aa(lp610
S'-74.208845533'
p611
aS'40.5399226238'
p612
aa(lp613
S'-73.7642730297'
p614
aS'40.6928742655'
p615
aa(lp616
S'-74.0999401198'
p617
aS'40.6405562694'
p618
aa(lp619
S'-73.8976534054'
p620
aS'40.7637639536'
p621
aa(lp622
S'-73.8148514807'
p623
aS'40.8201583558'
p624
aa(lp625
S'-74.0022665692'
p626
aS'40.7082719181'
p627
aa(lp628
S'-73.9301373134'
p629
aS'40.5900029239'
p630
aa(lp631
S'-74.0021904876'
p632
aS'40.7235101728'
p633
aa(lp634
S'-73.8681664075'
p635
aS'40.8279653687'
p636
aa(lp637
S'-73.8503657812'
p638
aS'40.815348817'
p639
aa(lp640
S'-74.0792945643'
p641
aS'40.5839238948'
p642
aa(lp643
S'-73.7920725404'
p644
aS'40.6947418742'
p645
aa(lp646
S'-73.8171316904'
p647
aS'40.6764749802'
p648
aa(lp649
S'-73.9580378106'
p650
aS'40.704055721'
p651
aa(lp652
S'-73.7727616574'
p653
aS'40.6729298955'
p654
aa(lp655
S'-73.7704044484'
p656
aS'40.6619600567'
p657
aa(lp658
S'-73.9120496428'
p659
aS'40.882293842'
p660
aa(lp661
S'-74.072191883'
p662
aS'40.6204572303'
p663
aa(lp664
S'-73.8841295906'
p665
aS'40.6447746689'
p666
aa(lp667
S'-73.8956998625'
p668
aS'40.782077261'
p669
aa(lp670
S'-73.9743249984'
p671
aS'40.7316206255'
p672
aa(lp673
S'-73.9304698739'
p674
aS'40.6887362757'
p675
aa(lp676
S'-73.9258368836'
p677
aS'40.7269988303'
p678
aa(lp679
S'-74.0068632759'
p680
aS'40.6397509837'
p681
aa(lp682
S'-74.0119474595'
p683
aS'40.6554774514'
p684
aa(lp685
S'-73.9642839896'
p686
aS'40.7557831605'
p687
aa(lp688
S'-73.9843133161'
p689
aS'40.7596055676'
p690
aa(lp691
S'-74.0098801017'
p692
aS'40.7188468075'
p693
aa(lp694
S'-73.9829543329'
p695
aS'40.7135927723'
p696
aa(lp697
S'-73.9695640008'
p698
aS'40.7462978912'
p699
aa(lp700
S'-73.9901308681'
p701
aS'40.7393084797'
p702
aa(lp703
S'-73.9171585397'
p704
aS'40.8541308242'
p705
aa(lp706
S'-73.957138407'
p707
aS'40.7802617432'
p708
aa(lp709
S'-73.9656661009'
p710
aS'40.7684548909'
p711
aa(lp712
S'-73.9740664157'
p713
aS'40.7923863599'
p714
aa(lp715
S'-73.9831702779'
p716
aS'40.7847897056'
p717
aa(lp718
S'-73.8790848899'
p719
aS'40.8907984931'
p720
aa(lp721
S'-73.8959719518'
p722
aS'40.8753410995'
p723
aa(lp724
S'-73.8492300185'
p725
aS'40.8485125852'
p726
aa(lp727
S'-73.9375195967'
p728
aS'40.8573717444'
p729
aa(lp730
S'-73.9432561883'
p731
aS'40.8428486337'
p732
aa(lp733
S'-74.1037965388'
p734
aS'40.6323457469'
p735
aa(lp736
S'-74.0081109552'
p737
aS'40.750103658'
p738
aa(lp739
S'-73.9240764742'
p740
aS'40.8302320664'
p741
aa(lp742
S'-73.8736618373'
p743
aS'40.8348603797'
p744
aa(lp745
S'-74.0030812947'
p746
aS'40.7338095677'
p747
aa(lp748
S'-73.8449619794'
p749
aS'40.8343431232'
p750
aa(lp751
S'-74.1260739638'
p752
aS'40.6165018462'
p753
aa(lp754
S'-73.8149884238'
p755
aS'40.7950958814'
p756
aa(lp757
S'-73.8422024408'
p758
aS'40.7620441114'
p759
aa(lp760
S'-73.8590557558'
p761
aS'40.8823913949'
p762
aa(lp763
S'-73.9616725255'
p764
aS'40.7196503044'
p765
aa(lp766
S'-73.9629403596'
p767
aS'40.7107347028'
p768
aa(lp769
S'-73.9784266297'
p770
aS'40.6560331675'
p771
aa(lp772
S'-73.8547319339'
p773
aS'40.687639397'
p774
aa(lp775
S'-73.8536353541'
p776
aS'40.90010592'
p777
aa(lp778
S'-73.9059076187'
p779
aS'40.7464373832'
p780
aa(lp781
S'-74.0139831337'
p782
aS'40.7074544221'
p783
aa(lp784
S'-73.9434889431'
p785
aS'40.778361638'
p786
aa(lp787
S'-73.9501987546'
p788
aS'40.7790186251'
p789
aa.