(lp0
(lp1
F-74.17426992431926
aF40.69024225406202
aa(lp2
F-73.81764329099832
aF40.61216178941573
aa(lp3
F-73.84651017379906
aF40.86429264234963
aa(lp4
F-73.97520913908242
aF40.72385203451761
aa(lp5
F-74.18980222486604
aF40.55667727392537
aa(lp6
F-74.07174661146719
aF40.60111661598011
aa(lp7
F-73.91936520832239
aF40.76143174616341
aa(lp8
F-73.92339597890177
aF40.77807621607815
aa(lp9
F-73.79018878024546
aF40.750301271192754
aa(lp10
F-73.79031785722644
aF40.6779297335769
aa(lp11
F-74.00902263648833
aF40.6026910863197
aa(lp12
F-74.01547735215907
aF40.70209002214725
aa(lp13
F-74.0173255680414
aF40.709417921426066
aa(lp14
F-74.02924599836523
aF40.625195055194496
aa(lp15
F-73.77860663233544
aF40.7909936105807
aa(lp16
F-73.76797279709474
aF40.76281007047373
aa(lp17
F-73.95031627801409
aF40.69239790004899
aa(lp18
F-73.88938703542051
aF40.868875339165726
aa(lp19
F-73.72887025748355
aF40.734680751658566
aa(lp20
F-73.88536633828468
aF40.85893935156592
aa(lp21
F-73.9904398254559
aF40.59688490926427
aa(lp22
F-73.99579856598584
aF40.60880434584958
aa(lp23
F-74.19051174084323
aF40.60462347672467
aa(lp24
F-73.96773924279964
aF40.802945519521366
aa(lp25
F-73.98592948846881
aF40.68658662149049
aa(lp26
F-73.98795179697342
aF40.6307365536606
aa(lp27
F-73.89081952129114
aF40.56129758288277
aa(lp28
F-73.8069844717253
aF40.71231241723243
aa(lp29
F-73.96050742660996
aF40.57993316574125
aa(lp30
F-73.82289622487299
aF40.60288116910245
aa(lp31
F-73.87512432889373
aF40.86030899531087
aa(lp32
F-73.8654155405947
aF40.86211468771955
aa(lp33
F-73.99550146410546
aF40.69696320957912
aa(lp34
F-73.9741757389051
aF40.702700825447224
aa(lp35
F-73.91032911284883
aF40.663989625990894
aa(lp36
F-73.91683446476537
aF40.69925884656183
aa(lp37
F-73.92392088120742
aF40.695463215065125
aa(lp38
F-73.7355307457652
aF40.69510329621855
aa(lp39
F-73.89170650673695
aF40.64248063326453
aa(lp40
F-73.99662565139855
aF40.67789840936891
aa(lp41
F-73.95057332048351
aF40.803354855119316
aa(lp42
F-73.93707478357955
aF40.82638312567389
aa(lp43
F-73.96649777643309
aF40.78150580426938
aa(lp44
F-74.23734770549169
aF40.52993855775979
aa(lp45
F-73.99804922532986
aF40.711567290008425
aa(lp46
F-73.78585151863363
aF40.850266085472946
aa(lp47
F-73.90047181818139
aF40.84321244743079
aa(lp48
F-73.99074397215337
aF40.76139689885702
aa(lp49
F-73.96138233256399
aF40.690253420153454
aa(lp50
F-73.9974739348322
aF40.767836373196715
aa(lp51
F-73.83037085418049
aF40.87553084584152
aa(lp52
F-73.99623990380073
aF40.68651891698219
aa(lp53
F-73.85106168914523
aF40.78323849655401
aa(lp54
F-74.00375097766931
aF40.68749069525936
aa(lp55
F-73.98796816416784
aF40.57538969680134
aa(lp56
F-73.85660851824264
aF40.74079028100026
aa(lp57
F-73.8533299045507
aF40.75209182310473
aa(lp58
F-73.81521508390547
aF40.843986819582994
aa(lp59
F-73.89505122941975
aF40.837953832759624
aa(lp60
F-73.88343084944654
aF40.83526632275791
aa(lp61
F-73.93557968023214
aF40.67512176158311
aa(lp62
F-73.94632905827605
aF40.66621542810381
aa(lp63
F-73.88457286965775
aF40.680949920387846
aa(lp64
F-73.74863431054196
aF40.76263443678513
aa(lp65
F-73.9852380434224
aF40.69586944235537
aa(lp66
F-73.98768666130725
aF40.70313165880852
aa(lp67
F-74.01504205213047
aF40.61743230926157
aa(lp68
F-74.00055337889758
aF40.748249390136216
aa(lp69
F-73.9151315122855
aF40.83058154498387
aa(lp70
F-73.86587126722017
aF40.7632722457688
aa(lp71
F-73.93595746927315
aF40.642759152238156
aa(lp72
F-73.92148204602576
aF40.65259304943211
aa(lp73
F-73.80716917965277
aF40.75294397699368
aa(lp74
F-73.93401190006676
aF40.8045880403174
aa(lp75
F-73.94187940211026
aF40.7882544466308
aa(lp76
F-73.87553756790315
aF40.65481859551199
aa(lp77
F-73.8948847549582
aF40.66711026454672
aa(lp78
F-73.8812021472615
aF40.84378148881829
aa(lp79
F-73.98648685749448
aF40.72675807770222
aa(lp80
F-73.9308221754981
aF40.71504973973919
aa(lp81
F-73.83102472248069
aF40.881654464384845
aa(lp82
F-73.87952035885436
aF40.73720495728154
aa(lp83
F-73.89288080114177
aF40.737890168478515
aa(lp84
F-74.19254791994244
aF40.520523301289614
aa(lp85
F-73.9518880918189
aF40.64579613742317
aa(lp86
F-73.75755828702917
aF40.60271602933992
aa(lp87
F-74.00555029611867
aF40.70463099312023
aa(lp88
F-74.01181055417634
aF40.70127155275581
aa(lp89
F-73.96209902155194
aF40.636980558552246
aa(lp90
F-73.99678865991638
aF40.74218759174197
aa(lp91
F-73.92937843906573
aF40.628120093550024
aa(lp92
F-73.82766241655312
aF40.760280014867064
aa(lp93
F-73.84589639802697
aF40.74751819188833
aa(lp94
F-73.89892608839283
aF40.858687808154826
aa(lp95
F-73.84478859714342
aF40.721277891328675
aa(lp96
F-73.86420988913835
aF40.69980381308148
aa(lp97
F-73.97761247642961
aF40.69157546373733
aa(lp98
F-73.77490176530972
aF40.73196472287279
aa(lp99
F-74.20318074319329
aF40.56822786867806
aa(lp100
F-73.988716016344
aF40.75338526573908
aa(lp101
F-73.71560770889532
aF40.746495703974915
aa(lp102
F-73.8770653261814
aF40.70180124913894
aa(lp103
F-74.04577197180993
aF40.69032947964017
aa(lp104
F-74.04058451460615
aF40.69948796084091
aa(lp105
F-74.01695859655565
aF40.69000960442
aa(lp106
F-73.99187385814413
aF40.67382207700142
aa(lp107
F-73.98426925439756
aF40.73670500717268
aa(lp108
F-73.98862026061636
aF40.58656126841018
aa(lp109
F-74.14351636393708
aF40.54304980005666
aa(lp110
F-74.12998042017946
aF40.54036480474125
aa(lp111
F-73.99066291310984
aF40.653078204309274
aa(lp112
F-73.95051608306443
aF40.734390316020324
aa(lp113
F-73.99420246870211
aF40.731906121712846
aa(lp114
F-73.99696399788944
aF40.72763357430801
aa(lp115
F-74.08447405967503
aF40.618920795685874
aa(lp116
F-73.9507274013453
aF40.82791863756133
aa(lp117
F-73.7913166070844
aF40.596827297691156
aa(lp118
F-74.1284282696368
aF40.58854765799688
aa(lp119
F-73.92626418672494
aF40.83793642726736
aa(lp120
F-73.93132310137676
aF40.84485976850459
aa(lp121
F-73.8053601462883
aF40.72835629692628
aa(lp122
F-73.76402106867462
aF40.71043301733775
aa(lp123
F-73.964729961346
aF40.598263763984036
aa(lp124
F-73.84737458680405
aF40.655354250649765
aa(lp125
F-74.00891582048976
aF40.725758808689264
aa(lp126
F-73.8891293421912
aF40.80736259368002
aa(lp127
F-73.91748494236606
aF40.8625939371929
aa(lp128
F-73.92138028569659
aF40.87465474726506
aa(lp129
F-73.8871823197595
aF40.7594737539584
aa(lp130
F-73.79052785724016
aF40.706136795449524
aa(lp131
F-73.77782465876606
aF40.719544426764585
aa(lp132
F-73.78374507812481
aF40.63906690227923
aa(lp133
F-73.97651009315194
aF40.6407326475988
aa(lp134
F-73.83162079161302
aF40.70855356208471
aa(lp135
F-73.82087709647342
aF40.7278747158484
aa(lp136
F-73.90776125518627
aF40.865122930041
aa(lp137
F-73.97382138747678
aF40.737883537840275
aa(lp138
F-73.87282129707359
aF40.77462586408556
aa(lp139
F-73.74506762997525
aF40.676717208218484
aa(lp140
F-73.95572006142395
aF40.76390559574341
aa(lp141
F-73.96011273016458
aF40.76561878854321
aa(lp142
F-73.98229601411462
aF40.77131254922938
aa(lp143
F-73.99006537679489
aF40.77639293910407
aa(lp144
F-73.99667510753075
aF40.720969107395135
aa(lp145
F-73.95488109139394
aF40.742514418326955
aa(lp146
F-73.93579087136813
aF40.75311874220888
aa(lp147
F-73.8985657827021
aF40.81974189106117
aa(lp148
F-73.99121831482235
aF40.718265965656684
aa(lp149
F-73.94644386007424
aF40.605564363582836
aa(lp150
F-73.94123022663499
aF40.58124624199197
aa(lp151
F-73.97100999009571
aF40.79937579585013
aa(lp152
F-73.95613233701494
aF40.81963888374809
aa(lp153
F-73.91181761045084
aF40.8745679308113
aa(lp154
F-73.91474360360804
aF40.5945636733951
aa(lp155
F-73.9019979373122
aF40.6132479952369
aa(lp156
F-74.17392370792388
aF40.640787027449676
aa(lp157
F-73.90391740540798
aF40.7235019331647
aa(lp158
F-74.0104859396036
aF40.73689504752434
aa(lp159
F-73.91345162561348
aF40.819889469868244
aa(lp160
F-73.88297649702552
aF40.71934368140179
aa(lp161
F-73.97734961192178
aF40.75775153309567
aa(lp162
F-73.97262471084912
aF40.756515915643114
aa(lp163
F-73.97875698987765
aF40.76555933613292
aa(lp164
F-73.98474780425762
aF40.74853079885455
aa(lp165
F-73.95822179977635
aF40.62171441960849
aa(lp166
F-73.96361259391962
aF40.810669741442545
aa(lp167
F-73.90502062052
aF40.82566748023221
aa(lp168
F-73.91207023034907
aF40.804258295647806
aa(lp169
F-73.9063590938635
aF40.84814724706415
aa(lp170
F-73.97830327682253
aF40.74747139423969
aa(lp171
F-73.80758363365172
aF40.768049447964955
aa(lp172
F-74.10462627133981
aF40.56889615068911
aa(lp173
F-73.86145904836529
aF40.75417821662625
aa(lp174
F-73.88201582192674
aF40.87866323291809
aa(lp175
F-73.75525883435358
aF40.74364477740033
aa(lp176
F-74.12135871255789
aF40.5645533988562
aa(lp177
F-73.91202957437875
aF40.67706718980121
aa(lp178
F-73.97150445690585
aF40.617846071639235
aa(lp179
F-73.93012319910801
aF40.77239388995934
aa(lp180
F-73.84852878105772
aF40.67630622163458
aa(lp181
F-73.9806703934305
aF40.670744298055396
aa(lp182
F-73.85863400014854
aF40.83709331661278
aa(lp183
F-73.83110437607331
aF40.849367519509464
aa(lp184
F-73.79654995611365
aF40.86223691535819
aa(lp185
F-73.85295549971732
aF40.85436838191218
aa(lp186
F-73.99199925311179
aF40.748583638891645
aa(lp187
F-74.13612872040149
aF40.632705195884974
aa(lp188
F-73.94809145769604
aF40.658741026366926
aa(lp189
F-73.96813111080476
aF40.676707418526334
aa(lp190
F-73.97256954226803
aF40.66106014853401
aa(lp191
F-73.74242935786906
aF40.7169284208632
aa(lp192
F-73.8146528485005
aF40.74406014202359
aa(lp193
F-73.93909325225279
aF40.76274140184199
aa(lp194
F-73.92573929154433
aF40.79182735920413
aa(lp195
F-74.01303183110433
aF40.67444582178897
aa(lp196
F-73.86395863573817
aF40.726169412792586
aa(lp197
F-73.82909615810327
aF40.695484392594764
aa(lp198
F-73.90416809122738
aF40.707358534890076
aa(lp199
F-73.88068320660491
aF40.79348801312346
aa(lp200
F-73.90818483328434
aF40.89894736862168
aa(lp201
F-73.83824618390864
aF40.5787524677836
aa(lp202
F-73.95021036199309
aF40.76176176103274
aa(lp203
F-73.74492481655751
aF40.64408992904625
aa(lp204
F-74.20884553300544
aF40.5399226238468
aa(lp205
F-73.76427302966833
aF40.69287426545239
aa(lp206
F-74.09994011981743
aF40.64055626938868
aa(lp207
F-73.89765340538192
aF40.76376395362553
aa(lp208
F-73.81485148074105
aF40.82015835584214
aa(lp209
F-74.00226656916917
aF40.70827191810186
aa(lp210
F-73.93013731341512
aF40.59000292386387
aa(lp211
F-74.00219048757903
aF40.72351017279662
aa(lp212
F-73.86816640746639
aF40.82796536872163
aa(lp213
F-73.8503657812453
aF40.81534881699602
aa(lp214
F-74.07929456430271
aF40.58392389480981
aa(lp215
F-73.79207254041589
aF40.694741874155675
aa(lp216
F-73.81713169040682
aF40.676474980155604
aa(lp217
F-73.95803781060285
aF40.704055720977784
aa(lp218
F-73.77276165740079
aF40.67292989546794
aa(lp219
F-73.77040444836062
aF40.66196005667327
aa(lp220
F-73.91204964282389
aF40.882293841998575
aa(lp221
F-74.07219188298988
aF40.62045723031514
aa(lp222
F-73.88412959055219
aF40.64477466889247
aa(lp223
F-73.89569986246272
aF40.78207726098457
aa(lp224
F-73.97432499842307
aF40.731620625537914
aa(lp225
F-73.93046987385092
aF40.68873627566009
aa(lp226
F-73.92583688356599
aF40.72699883028978
aa(lp227
F-74.00686327589621
aF40.63975098370523
aa(lp228
F-74.01194745949105
aF40.655477451369904
aa(lp229
F-73.96428398961709
aF40.75578316054413
aa(lp230
F-73.9843133161455
aF40.75960556762614
aa(lp231
F-74.00988010171434
aF40.71884680749458
aa(lp232
F-73.98295433294447
aF40.713592772282354
aa(lp233
F-73.96956400079316
aF40.746297891195965
aa(lp234
F-73.99013086806588
aF40.739308479749106
aa(lp235
F-73.91715853973676
aF40.854130824169644
aa(lp236
F-73.9571384070408
aF40.78026174319427
aa(lp237
F-73.96566610085145
aF40.76845489085491
aa(lp238
F-73.97406641566637
aF40.792386359926226
aa(lp239
F-73.98317027789774
aF40.78478970557727
aa(lp240
F-73.87908488990625
aF40.89079849305591
aa(lp241
F-73.89597195184487
aF40.875341099450196
aa(lp242
F-73.84923001851512
aF40.848512585205114
aa(lp243
F-73.93751959668954
aF40.85737174443556
aa(lp244
F-73.94325618827071
aF40.842848633686096
aa(lp245
F-74.10379653883692
aF40.632345746896036
aa(lp246
F-74.0081109551943
aF40.750103658041816
aa(lp247
F-73.92407647421234
aF40.83023206642835
aa(lp248
F-73.87366183732
aF40.83486037970901
aa(lp249
F-74.00308129468493
aF40.733809567733246
aa(lp250
F-73.84496197941057
aF40.8343431231898
aa(lp251
F-74.12607396382654
aF40.616501846218796
aa(lp252
F-73.81498842377012
aF40.79509588143129
aa(lp253
F-73.84220244081517
aF40.76204411143636
aa(lp254
F-73.85905575581398
aF40.882391394851204
aa(lp255
F-73.9616725255054
aF40.71965030439586
aa(lp256
F-73.96294035955341
aF40.71073470276559
aa(lp257
F-73.97842662968712
aF40.65603316751499
aa(lp258
F-73.8547319339448
aF40.68763939697024
aa(lp259
F-73.85363535409333
aF40.90010592000297
aa(lp260
F-73.90590761869926
aF40.74643738324725
aa(lp261
F-74.01398313372826
aF40.707454422052784
aa(lp262
F-73.94348894313167
aF40.77836163804103
aa(lp263
F-73.95019875457432
aF40.779018625064374
aa.